target datalayout = "e-m:e-p270:32:32-p271:32:32-p272:64:64-i64:64-i128:128-f80:128-n8:16:32:64-S128"
target triple = "x86_64-pc-linux-gnu"

%struct.H5C_class_t = type { i32, ptr, i32, i32, ptr, ptr, ptr, ptr, ptr, ptr, ptr, ptr, ptr, ptr }
%struct.H5B_class_t = type { i32, i64, ptr, ptr, ptr, ptr, ptr, ptr, i8, i8, i32, ptr, ptr, ptr, ptr }
%struct.H5B_cache_ud_t = type { ptr, ptr, i32, ptr }

@H5B_init_g = global i8 0, align 1
@H5_libterm_g = external global i8, align 1
@.str.3 = private unnamed_addr constant [97 x i8] c"generated/home/dtcxzyw/WorkSpace/Projects/compilers/llvm-opt-benchmark/bench/hdf5/hdf5/src/H5B.c\00", align 1
@H5E_BTREE_g = external global i64, align 8
@H5E_CANTGET_g = external global i64, align 8
@H5AC_BT = external constant [1 x %struct.H5C_class_t], align 16
@.str.9 = private unnamed_addr constant [49 x i8] c"can't retrieve B-tree's shared ref. count object\00", align 1
@H5E_CANTPROTECT_g = external global i64, align 8
@H5E_CANTUNPROTECT_g = external global i64, align 8
@__func__.H5B_valid = private unnamed_addr constant [10 x i8] c"H5B_valid\00", align 1
@H5E_BADVALUE_g = external global i64, align 8
@.str.32 = private unnamed_addr constant [21 x i8] c"address is undefined\00", align 1
@.str.33 = private unnamed_addr constant [30 x i8] c"unable to protect B-tree node\00", align 1
@.str.34 = private unnamed_addr constant [30 x i8] c"unable to release B-tree node\00", align 1

; Function Attrs: nounwind uwtable
define i32 @H5B_valid(ptr noundef %0, ptr noundef %1, i64 noundef %2) #0 {
  %4 = alloca ptr, align 8
  %5 = alloca ptr, align 8
  %6 = alloca i64, align 8
  %7 = alloca ptr, align 8
  %8 = alloca ptr, align 8
  %9 = alloca %struct.H5B_cache_ud_t, align 8
  %10 = alloca i32, align 4
  %11 = alloca i8, align 1
  store ptr %0, ptr %4, align 8, !tbaa !3
  store ptr %1, ptr %5, align 8, !tbaa !8
  store i64 %2, ptr %6, align 8, !tbaa !23
  call void @llvm.lifetime.start.p0(i64 8, ptr %7) #6
  store ptr null, ptr %7, align 8, !tbaa !13
  call void @llvm.lifetime.start.p0(i64 8, ptr %8) #6
  call void @llvm.lifetime.start.p0(i64 32, ptr %9) #6
  call void @llvm.lifetime.start.p0(i64 4, ptr %10) #6
  store i32 0, ptr %10, align 4, !tbaa !17
  call void @llvm.lifetime.start.p0(i64 1, ptr %11) #6
  store i8 0, ptr %11, align 1, !tbaa !19
  %12 = load i8, ptr @H5B_init_g, align 1, !tbaa !19, !range !21, !noundef !22
  %13 = trunc i8 %12 to i1
  br i1 %13, label %18, label %14

14:                                               ; preds = %3
  %15 = load i8, ptr @H5_libterm_g, align 1, !tbaa !19, !range !21, !noundef !22
  %16 = trunc i8 %15 to i1
  %17 = xor i1 %16, true
  br label %18

18:                                               ; preds = %14, %3
  %19 = phi i1 [ false, %3 ], [ %17, %14 ]
  %20 = xor i1 %19, true
  %21 = xor i1 %20, true
  %22 = zext i1 %21 to i32
  %23 = sext i32 %22 to i64
  %24 = call i64 @llvm.expect.i64(i64 %23, i64 0)
  %25 = icmp ne i64 %24, 0
  br i1 %25, label %26, label %27

26:                                               ; preds = %18
  store i8 1, ptr @H5B_init_g, align 1, !tbaa !19
  br label %27

27:                                               ; preds = %26, %18
  %28 = load i8, ptr @H5B_init_g, align 1, !tbaa !19, !range !21, !noundef !22
  %29 = trunc i8 %28 to i1
  br i1 %29, label %34, label %30

30:                                               ; preds = %27
  %31 = load i8, ptr @H5_libterm_g, align 1, !tbaa !19, !range !21, !noundef !22
  %32 = trunc i8 %31 to i1
  %33 = xor i1 %32, true
  br label %34

34:                                               ; preds = %30, %27
  %35 = phi i1 [ true, %27 ], [ %33, %30 ]
  %36 = xor i1 %35, true
  %37 = xor i1 %36, true
  %38 = zext i1 %37 to i32
  %39 = sext i32 %38 to i64
  %40 = call i64 @llvm.expect.i64(i64 %39, i64 1)
  %41 = icmp ne i64 %40, 0
  br i1 %41, label %42, label %148

42:                                               ; preds = %34
  %43 = load i64, ptr %6, align 8, !tbaa !23
  %44 = icmp ne i64 %43, -1
  br i1 %44, label %64, label %45

45:                                               ; preds = %42
  br label %46

46:                                               ; preds = %45
  br label %47

47:                                               ; preds = %46
  br label %48

48:                                               ; preds = %47
  %49 = load i64, ptr @H5E_BTREE_g, align 8, !tbaa !23
  %50 = load i64, ptr @H5E_BADVALUE_g, align 8, !tbaa !23
  %51 = call i32 (ptr, ptr, i32, i64, i64, ptr, ...) @H5E_printf_stack(ptr noundef @.str.3, ptr noundef @__func__.H5B_valid, i32 noundef 1923, i64 noundef %49, i64 noundef %50, ptr noundef @.str.32)
  br label %52

52:                                               ; preds = %48
  br label %53

53:                                               ; preds = %52
  store i8 1, ptr %11, align 1, !tbaa !19
  %54 = load i8, ptr %11, align 1, !tbaa !19, !range !21, !noundef !22
  %55 = trunc i8 %54 to i1
  %56 = zext i1 %55 to i8
  store i8 %56, ptr %11, align 1, !tbaa !19
  br label %57

57:                                               ; preds = %53
  br label %58

58:                                               ; preds = %57
  br label %59

59:                                               ; preds = %58
  store i32 -1, ptr %10, align 4, !tbaa !17
  br label %122

60:                                               ; No predecessors!
  br label %61

61:                                               ; preds = %60
  br label %62

62:                                               ; preds = %61
  br label %63

63:                                               ; preds = %62
  br label %64

64:                                               ; preds = %63, %42
  %65 = load ptr, ptr %5, align 8, !tbaa !8
  %66 = getelementptr inbounds nuw %struct.H5B_class_t, ptr %65, i32 0, i32 2
  %67 = load ptr, ptr %66, align 8, !tbaa !38
  %68 = load ptr, ptr %4, align 8, !tbaa !3
  %69 = call ptr %67(ptr noundef %68, ptr noundef null)
  store ptr %69, ptr %8, align 8, !tbaa !52
  %70 = icmp eq ptr null, %69
  br i1 %70, label %71, label %90

71:                                               ; preds = %64
  br label %72

72:                                               ; preds = %71
  br label %73

73:                                               ; preds = %72
  br label %74

74:                                               ; preds = %73
  %75 = load i64, ptr @H5E_BTREE_g, align 8, !tbaa !23
  %76 = load i64, ptr @H5E_CANTGET_g, align 8, !tbaa !23
  %77 = call i32 (ptr, ptr, i32, i64, i64, ptr, ...) @H5E_printf_stack(ptr noundef @.str.3, ptr noundef @__func__.H5B_valid, i32 noundef 1927, i64 noundef %75, i64 noundef %76, ptr noundef @.str.9)
  br label %78

78:                                               ; preds = %74
  br label %79

79:                                               ; preds = %78
  store i8 1, ptr %11, align 1, !tbaa !19
  %80 = load i8, ptr %11, align 1, !tbaa !19, !range !21, !noundef !22
  %81 = trunc i8 %80 to i1
  %82 = zext i1 %81 to i8
  store i8 %82, ptr %11, align 1, !tbaa !19
  br label %83

83:                                               ; preds = %79
  br label %84

84:                                               ; preds = %83
  br label %85

85:                                               ; preds = %84
  store i32 -1, ptr %10, align 4, !tbaa !17
  br label %122

86:                                               ; No predecessors!
  br label %87

87:                                               ; preds = %86
  br label %88

88:                                               ; preds = %87
  br label %89

89:                                               ; preds = %88
  br label %90

90:                                               ; preds = %89, %64
  %91 = load ptr, ptr %4, align 8, !tbaa !3
  %92 = getelementptr inbounds nuw %struct.H5B_cache_ud_t, ptr %9, i32 0, i32 0
  store ptr %91, ptr %92, align 8, !tbaa !53
  %93 = load ptr, ptr %5, align 8, !tbaa !8
  %94 = getelementptr inbounds nuw %struct.H5B_cache_ud_t, ptr %9, i32 0, i32 1
  store ptr %93, ptr %94, align 8, !tbaa !55
  %95 = load ptr, ptr %8, align 8, !tbaa !52
  %96 = getelementptr inbounds nuw %struct.H5B_cache_ud_t, ptr %9, i32 0, i32 3
  store ptr %95, ptr %96, align 8, !tbaa !56
  %97 = getelementptr inbounds nuw %struct.H5B_cache_ud_t, ptr %9, i32 0, i32 2
  store i32 -1, ptr %97, align 8, !tbaa !57
  %98 = load ptr, ptr %4, align 8, !tbaa !3
  %99 = load i64, ptr %6, align 8, !tbaa !23
  %100 = call ptr @H5AC_protect(ptr noundef %98, ptr noundef @H5AC_BT, i64 noundef %99, ptr noundef %9, i32 noundef 128)
  store ptr %100, ptr %7, align 8, !tbaa !13
  %101 = icmp eq ptr null, %100
  br i1 %101, label %102, label %121

102:                                              ; preds = %90
  br label %103

103:                                              ; preds = %102
  br label %104

104:                                              ; preds = %103
  br label %105

105:                                              ; preds = %104
  %106 = load i64, ptr @H5E_BTREE_g, align 8, !tbaa !23
  %107 = load i64, ptr @H5E_CANTPROTECT_g, align 8, !tbaa !23
  %108 = call i32 (ptr, ptr, i32, i64, i64, ptr, ...) @H5E_printf_stack(ptr noundef @.str.3, ptr noundef @__func__.H5B_valid, i32 noundef 1938, i64 noundef %106, i64 noundef %107, ptr noundef @.str.33)
  br label %109

109:                                              ; preds = %105
  br label %110

110:                                              ; preds = %109
  store i8 1, ptr %11, align 1, !tbaa !19
  %111 = load i8, ptr %11, align 1, !tbaa !19, !range !21, !noundef !22
  %112 = trunc i8 %111 to i1
  %113 = zext i1 %112 to i8
  store i8 %113, ptr %11, align 1, !tbaa !19
  br label %114

114:                                              ; preds = %110
  br label %115

115:                                              ; preds = %114
  br label %116

116:                                              ; preds = %115
  store i32 -1, ptr %10, align 4, !tbaa !17
  br label %122

117:                                              ; No predecessors!
  br label %118

118:                                              ; preds = %117
  br label %119

119:                                              ; preds = %118
  br label %120

120:                                              ; preds = %119
  br label %121

121:                                              ; preds = %120, %90
  br label %122

122:                                              ; preds = %121, %116, %85, %59
  %123 = load ptr, ptr %7, align 8, !tbaa !13
  %124 = icmp ne ptr %123, null
  br i1 %124, label %125, label %147

125:                                              ; preds = %122
  %126 = load ptr, ptr %4, align 8, !tbaa !3
  %127 = load i64, ptr %6, align 8, !tbaa !23
  %128 = load ptr, ptr %7, align 8, !tbaa !13
  %129 = call i32 @H5AC_unprotect(ptr noundef %126, ptr noundef @H5AC_BT, i64 noundef %127, ptr noundef %128, i32 noundef 0)
  %130 = icmp slt i32 %129, 0
  br i1 %130, label %131, label %147

131:                                              ; preds = %125
  br label %132

132:                                              ; preds = %131
  br label %133

133:                                              ; preds = %132
  br label %134

134:                                              ; preds = %133
  %135 = load i64, ptr @H5E_BTREE_g, align 8, !tbaa !23
  %136 = load i64, ptr @H5E_CANTUNPROTECT_g, align 8, !tbaa !23
  %137 = call i32 (ptr, ptr, i32, i64, i64, ptr, ...) @H5E_printf_stack(ptr noundef @.str.3, ptr noundef @__func__.H5B_valid, i32 noundef 1943, i64 noundef %135, i64 noundef %136, ptr noundef @.str.34)
  br label %138

138:                                              ; preds = %134
  br label %139

139:                                              ; preds = %138
  store i8 1, ptr %11, align 1, !tbaa !19
  %140 = load i8, ptr %11, align 1, !tbaa !19, !range !21, !noundef !22
  %141 = trunc i8 %140 to i1
  %142 = zext i1 %141 to i8
  store i8 %142, ptr %11, align 1, !tbaa !19
  br label %143

143:                                              ; preds = %139
  br label %144

144:                                              ; preds = %143
  store i32 -1, ptr %10, align 4, !tbaa !17
  br label %145

145:                                              ; preds = %144
  br label %146

146:                                              ; preds = %145
  br label %147

147:                                              ; preds = %146, %125, %122
  br label %148

148:                                              ; preds = %147, %34
  %149 = load i32, ptr %10, align 4, !tbaa !17
  call void @llvm.lifetime.end.p0(i64 1, ptr %11) #6
  call void @llvm.lifetime.end.p0(i64 4, ptr %10) #6
  call void @llvm.lifetime.end.p0(i64 32, ptr %9) #6
  call void @llvm.lifetime.end.p0(i64 8, ptr %8) #6
  call void @llvm.lifetime.end.p0(i64 8, ptr %7) #6
  ret i32 %149
}