; Function Attrs: nounwind uwtable
define range(i32 -1, 1) i32 @H5B_valid(ptr noundef %0, ptr noundef %1, i64 noundef %2) local_unnamed_addr #0 {
  %4 = alloca %struct.H5B_cache_ud_t, align 8
  call void @llvm.lifetime.start.p0(i64 32, ptr nonnull %4) #6
  %5 = load i8, ptr @H5B_init_g, align 1, !tbaa !3, !range !7, !noundef !8
  %6 = trunc nuw i8 %5 to i1
  %7 = load i8, ptr @H5_libterm_g, align 1, !range !7
  %8 = trunc nuw i8 %7 to i1
  %9 = select i1 %6, i1 true, i1 %8
  br i1 %9, label %10, label %.thread, !prof !9

.thread:                                          ; preds = %3
  store i8 1, ptr @H5B_init_g, align 1, !tbaa !3
  br label %13

10:                                               ; preds = %3
  %11 = xor i1 %8, true
  %12 = select i1 %6, i1 true, i1 %11
  br i1 %12, label %13, label %.thread22, !prof !10

13:                                               ; preds = %.thread, %10
  %.not = icmp eq i64 %2, -1
  br i1 %.not, label %14, label %18

14:                                               ; preds = %13
  %15 = load i64, ptr @H5E_BTREE_g, align 8, !tbaa !29
  %16 = load i64, ptr @H5E_BADVALUE_g, align 8, !tbaa !29
  %17 = tail call i32 (ptr, ptr, i32, i64, i64, ptr, ...) @H5E_printf_stack(ptr noundef nonnull @.str.3, ptr noundef nonnull @__func__.H5B_valid, i32 noundef 1923, i64 noundef %15, i64 noundef %16, ptr noundef nonnull @.str.32) #6
  br label %.thread22

18:                                               ; preds = %13
  %19 = getelementptr inbounds nuw i8, ptr %1, i64 16
  %20 = load ptr, ptr %19, align 8, !tbaa !26
  %21 = tail call ptr %20(ptr noundef %0, ptr noundef null) #6
  %22 = icmp eq ptr %21, null
  br i1 %22, label %23, label %27

23:                                               ; preds = %18
  %24 = load i64, ptr @H5E_BTREE_g, align 8, !tbaa !29
  %25 = load i64, ptr @H5E_CANTGET_g, align 8, !tbaa !29
  %26 = tail call i32 (ptr, ptr, i32, i64, i64, ptr, ...) @H5E_printf_stack(ptr noundef nonnull @.str.3, ptr noundef nonnull @__func__.H5B_valid, i32 noundef 1927, i64 noundef %24, i64 noundef %25, ptr noundef nonnull @.str.9) #6
  br label %.thread22

27:                                               ; preds = %18
  store ptr %0, ptr %4, align 8, !tbaa !40
  %28 = getelementptr inbounds nuw i8, ptr %4, i64 8
  store ptr %1, ptr %28, align 8, !tbaa !43
  %29 = getelementptr inbounds nuw i8, ptr %4, i64 24
  store ptr %21, ptr %29, align 8, !tbaa !44
  %30 = getelementptr inbounds nuw i8, ptr %4, i64 16
  store i32 -1, ptr %30, align 8, !tbaa !45
  %31 = call ptr @H5AC_protect(ptr noundef %0, ptr noundef nonnull @H5AC_BT, i64 noundef %2, ptr noundef nonnull %4, i32 noundef 128) #6
  %32 = icmp eq ptr %31, null
  br i1 %32, label %33, label %37

33:                                               ; preds = %27
  %34 = load i64, ptr @H5E_BTREE_g, align 8, !tbaa !29
  %35 = load i64, ptr @H5E_CANTPROTECT_g, align 8, !tbaa !29
  %36 = call i32 (ptr, ptr, i32, i64, i64, ptr, ...) @H5E_printf_stack(ptr noundef nonnull @.str.3, ptr noundef nonnull @__func__.H5B_valid, i32 noundef 1938, i64 noundef %34, i64 noundef %35, ptr noundef nonnull @.str.33) #6
  br label %.thread22

37:                                               ; preds = %27
  %38 = call i32 @H5AC_unprotect(ptr noundef %0, ptr noundef nonnull @H5AC_BT, i64 noundef %2, ptr noundef nonnull %31, i32 noundef 0) #6
  %39 = icmp slt i32 %38, 0
  br i1 %39, label %40, label %.thread22

40:                                               ; preds = %37
  %41 = load i64, ptr @H5E_BTREE_g, align 8, !tbaa !29
  %42 = load i64, ptr @H5E_CANTUNPROTECT_g, align 8, !tbaa !29
  %43 = call i32 (ptr, ptr, i32, i64, i64, ptr, ...) @H5E_printf_stack(ptr noundef nonnull @.str.3, ptr noundef nonnull @__func__.H5B_valid, i32 noundef 1943, i64 noundef %41, i64 noundef %42, ptr noundef nonnull @.str.34) #6
  br label %.thread22

.thread22:                                        ; preds = %14, %33, %23, %37, %40, %10
  %.0 = phi i32 [ -1, %40 ], [ 0, %37 ], [ 0, %10 ], [ -1, %23 ], [ -1, %33 ], [ -1, %14 ]
  call void @llvm.lifetime.end.p0(i64 32, ptr nonnull %4) #6
  ret i32 %.0
}